	.file	"test.cc"
	.local	_ZStL8__ioinit
	.comm	_ZStL8__ioinit,1,1
	.text
	.globl	_Z11select_sortPii
	.type	_Z11select_sortPii, @function
_Z11select_sortPii:
.LFB971:
	.cfi_startproc
	pushq	%rbp
	.cfi_def_cfa_offset 16
	.cfi_offset 6, -16
	movq	%rsp, %rbp
	.cfi_def_cfa_register 6
	subq	$32, %rsp
	movq	%rdi, -24(%rbp)
	movl	%esi, -28(%rbp)
	movl	$0, -4(%rbp)
	jmp	.L2
.L7:
	movl	-4(%rbp), %eax
	movl	%eax, -8(%rbp)
	movl	-4(%rbp), %eax
	cltq
	leaq	0(,%rax,4), %rdx
	movq	-24(%rbp), %rax
	addq	%rdx, %rax
	movl	(%rax), %eax
	movl	%eax, -12(%rbp)
	movl	-4(%rbp), %eax
	addl	$1, %eax
	movl	%eax, -16(%rbp)
	jmp	.L3
.L5:
	movl	-16(%rbp), %eax
	cltq
	leaq	0(,%rax,4), %rdx
	movq	-24(%rbp), %rax
	addq	%rdx, %rax
	movl	(%rax), %eax
	cmpl	-12(%rbp), %eax
	jge	.L4
	movl	-16(%rbp), %eax
	movl	%eax, -8(%rbp)
	movl	-8(%rbp), %eax
	cltq
	leaq	0(,%rax,4), %rdx
	movq	-24(%rbp), %rax
	addq	%rdx, %rax
	movl	(%rax), %eax
	movl	%eax, -12(%rbp)
.L4:
	addl	$1, -16(%rbp)
.L3:
	movl	-16(%rbp), %eax
	cmpl	-28(%rbp), %eax
	jl	.L5
	movl	-8(%rbp), %eax
	cmpl	-4(%rbp), %eax
	je	.L6
	movl	-8(%rbp), %eax
	cltq
	leaq	0(,%rax,4), %rdx
	movq	-24(%rbp), %rax
	addq	%rax, %rdx
	movl	-4(%rbp), %eax
	cltq
	leaq	0(,%rax,4), %rcx
	movq	-24(%rbp), %rax
	addq	%rcx, %rax
	movq	%rdx, %rsi
	movq	%rax, %rdi
	call	_ZSt4swapIiEvRT_S1_
.L6:
	addl	$1, -4(%rbp)
.L2:
	movl	-4(%rbp), %eax
	cmpl	-28(%rbp), %eax
	jl	.L7
	leave
	.cfi_def_cfa 7, 8
	ret
	.cfi_endproc
.LFE971:
	.size	_Z11select_sortPii, .-_Z11select_sortPii
	.section	.rodata
.LC0:
	.string	" "
	.text
	.globl	main
	.type	main, @function
main:
.LFB972:
	.cfi_startproc
	pushq	%rbp
	.cfi_def_cfa_offset 16
	.cfi_offset 6, -16
	movq	%rsp, %rbp
	.cfi_def_cfa_register 6
	subq	$48, %rsp
	movl	$2, -48(%rbp)
	movl	$1, -44(%rbp)
	movl	$9, -40(%rbp)
	movl	$5, -36(%rbp)
	movl	$3, -32(%rbp)
	movl	$8, -28(%rbp)
	movl	$4, -24(%rbp)
	movl	$6, -20(%rbp)
	movl	$7, -16(%rbp)
	movl	$9, %eax
	movl	%eax, -8(%rbp)
	movl	-8(%rbp), %edx
	leaq	-48(%rbp), %rax
	movl	%edx, %esi
	movq	%rax, %rdi
	call	_Z11select_sortPii
	movl	$0, -4(%rbp)
	jmp	.L9
.L10:
	movl	-4(%rbp), %eax
	cltq
	movl	-48(%rbp,%rax,4), %eax
	movl	%eax, %esi
	movl	$_ZSt4cout, %edi
	call	_ZNSolsEi
	movl	$.LC0, %esi
	movq	%rax, %rdi
	call	_ZStlsISt11char_traitsIcEERSt13basic_ostreamIcT_ES5_PKc
	addl	$1, -4(%rbp)
.L9:
	movl	-4(%rbp), %eax
	cmpl	-8(%rbp), %eax
	jl	.L10
	movl	$_ZSt4endlIcSt11char_traitsIcEERSt13basic_ostreamIT_T0_ES6_, %esi
	movl	$_ZSt4cout, %edi
	call	_ZNSolsEPFRSoS_E
	movl	$0, %eax
	leave
	.cfi_def_cfa 7, 8
	ret
	.cfi_endproc
.LFE972:
	.size	main, .-main
	.section	.text._ZSt4swapIiEvRT_S1_,"axG",@progbits,_ZSt4swapIiEvRT_S1_,comdat
	.weak	_ZSt4swapIiEvRT_S1_
	.type	_ZSt4swapIiEvRT_S1_, @function
_ZSt4swapIiEvRT_S1_:
.LFB973:
	.cfi_startproc
	pushq	%rbp
	.cfi_def_cfa_offset 16
	.cfi_offset 6, -16
	movq	%rsp, %rbp
	.cfi_def_cfa_register 6
	movq	%rdi, -24(%rbp)
	movq	%rsi, -32(%rbp)
	movq	-24(%rbp), %rax
	movl	(%rax), %eax
	movl	%eax, -4(%rbp)
	movq	-32(%rbp), %rax
	movl	(%rax), %edx
	movq	-24(%rbp), %rax
	movl	%edx, (%rax)
	movq	-32(%rbp), %rax
	movl	-4(%rbp), %edx
	movl	%edx, (%rax)
	popq	%rbp
	.cfi_def_cfa 7, 8
	ret
	.cfi_endproc
.LFE973:
	.size	_ZSt4swapIiEvRT_S1_, .-_ZSt4swapIiEvRT_S1_
	.text
	.type	_Z41__static_initialization_and_destruction_0ii, @function
_Z41__static_initialization_and_destruction_0ii:
.LFB982:
	.cfi_startproc
	pushq	%rbp
	.cfi_def_cfa_offset 16
	.cfi_offset 6, -16
	movq	%rsp, %rbp
	.cfi_def_cfa_register 6
	subq	$16, %rsp
	movl	%edi, -4(%rbp)
	movl	%esi, -8(%rbp)
	cmpl	$1, -4(%rbp)
	jne	.L13
	cmpl	$65535, -8(%rbp)
	jne	.L13
	movl	$_ZStL8__ioinit, %edi
	call	_ZNSt8ios_base4InitC1Ev
	movl	$__dso_handle, %edx
	movl	$_ZStL8__ioinit, %esi
	movl	$_ZNSt8ios_base4InitD1Ev, %edi
	call	__cxa_atexit
.L13:
	leave
	.cfi_def_cfa 7, 8
	ret
	.cfi_endproc
.LFE982:
	.size	_Z41__static_initialization_and_destruction_0ii, .-_Z41__static_initialization_and_destruction_0ii
	.type	_GLOBAL__sub_I__Z11select_sortPii, @function
_GLOBAL__sub_I__Z11select_sortPii:
.LFB983:
	.cfi_startproc
	pushq	%rbp
	.cfi_def_cfa_offset 16
	.cfi_offset 6, -16
	movq	%rsp, %rbp
	.cfi_def_cfa_register 6
	movl	$65535, %esi
	movl	$1, %edi
	call	_Z41__static_initialization_and_destruction_0ii
	popq	%rbp
	.cfi_def_cfa 7, 8
	ret
	.cfi_endproc
.LFE983:
	.size	_GLOBAL__sub_I__Z11select_sortPii, .-_GLOBAL__sub_I__Z11select_sortPii
	.section	.init_array,"aw"
	.align 8
	.quad	_GLOBAL__sub_I__Z11select_sortPii
	.hidden	__dso_handle
	.ident	"GCC: (GNU) 4.8.5 20150623 (Red Hat 4.8.5-28)"
	.section	.note.GNU-stack,"",@progbits
